target datalayout = "e-m:e-p270:32:32-p271:32:32-p272:64:64-i64:64-i128:128-f80:128-n8:16:32:64-S128"
target triple = "x86_64-unknown-linux-gnu"

%"class.google::protobuf::internal::InternalMetadata" = type { i64 }
%union.anon = type { %"struct.google::protobuf::Option::Impl_" }
%"struct.google::protobuf::Option::Impl_" = type { %"class.google::protobuf::internal::HasBits", %"class.google::protobuf::internal::CachedSize", %"struct.google::protobuf::internal::ArenaStringPtr", ptr }
%"class.google::protobuf::internal::HasBits" = type { [1 x i32] }
%"class.google::protobuf::internal::CachedSize" = type { i32 }
%"struct.google::protobuf::internal::ArenaStringPtr" = type { %"class.google::protobuf::internal::TaggedStringPtr" }
%"class.google::protobuf::internal::TaggedStringPtr" = type { ptr }
%"class.google::protobuf::Message" = type { %"class.google::protobuf::MessageLite" }
%"class.google::protobuf::MessageLite" = type { ptr, %"class.google::protobuf::internal::InternalMetadata" }
%"struct.google::protobuf::internal::InternalMetadata::Container" = type { %"struct.google::protobuf::internal::InternalMetadata::ContainerBase", %"class.google::protobuf::UnknownFieldSet" }
%"struct.google::protobuf::internal::InternalMetadata::ContainerBase" = type { ptr }
%"class.google::protobuf::UnknownFieldSet" = type { %"class.std::vector" }
%"class.std::vector" = type { %"struct.std::_Vector_base" }
%"struct.std::_Vector_base" = type { %"struct.std::_Vector_base<google::protobuf::UnknownField, std::allocator<google::protobuf::UnknownField>>::_Vector_impl" }
%"struct.std::_Vector_base<google::protobuf::UnknownField, std::allocator<google::protobuf::UnknownField>>::_Vector_impl" = type { %"struct.std::_Vector_base<google::protobuf::UnknownField, std::allocator<google::protobuf::UnknownField>>::_Vector_impl_data" }
%"struct.std::_Vector_base<google::protobuf::UnknownField, std::allocator<google::protobuf::UnknownField>>::_Vector_impl_data" = type { ptr, ptr, ptr }
%"class.google::protobuf::io::EpsCopyOutputStream" = type <{ ptr, ptr, [32 x i8], ptr, i8, i8, i8, i8, [4 x i8] }>
%"class.google::protobuf::Option" = type { %"class.google::protobuf::Message", %union.anon }
%"class.google::protobuf::Any" = type { %"class.google::protobuf::Message", %union.anon.49 }
%union.anon.49 = type { %"struct.google::protobuf::Any::Impl_" }
%"struct.google::protobuf::Any::Impl_" = type { %"struct.google::protobuf::internal::ArenaStringPtr", %"struct.google::protobuf::internal::ArenaStringPtr", %"class.google::protobuf::internal::CachedSize", %"class.google::protobuf::internal::AnyMetadata" }
%"class.google::protobuf::internal::AnyMetadata" = type { ptr, ptr }

@.str.14 = private unnamed_addr constant [28 x i8] c"google.protobuf.Option.name\00", align 1

; Function Attrs: mustprogress nounwind uwtable
define linkonce_odr hidden noundef i64 @_ZNK6google8protobuf8internal15TaggedStringPtr6as_intEv(ptr noundef nonnull align 8 dereferenceable(8) %this) #5 comdat align 2 {
entry:
  %this.addr = alloca ptr, align 8
  store ptr %this, ptr %this.addr, align 8
  %this1 = load ptr, ptr %this.addr, align 8
  %ptr_ = getelementptr inbounds %"class.google::protobuf::internal::TaggedStringPtr", ptr %this1, i32 0, i32 0
  %0 = load ptr, ptr %ptr_, align 8
  %1 = ptrtoint ptr %0 to i64
  ret i64 %1
}

; Function Attrs: mustprogress nounwind uwtable
define linkonce_odr hidden noundef i32 @_ZNK6google8protobuf8internal10CachedSize3GetEv(ptr noundef nonnull align 4 dereferenceable(4) %this) #5 comdat align 2 {
entry:
  %this.addr = alloca ptr, align 8
  %atomic-temp = alloca i32, align 4
  store ptr %this, ptr %this.addr, align 8
  %this1 = load ptr, ptr %this.addr, align 8
  %atom_ = getelementptr inbounds %"class.google::protobuf::internal::CachedSize", ptr %this1, i32 0, i32 0
  %0 = load atomic i32, ptr %atom_ monotonic, align 4
  store i32 %0, ptr %atomic-temp, align 4
  %1 = load i32, ptr %atomic-temp, align 4
  ret i32 %1
}

; Function Attrs: mustprogress nounwind uwtable
define linkonce_odr hidden noundef i32 @_ZN6google8protobuf2io19EpsCopyOutputStream7TagSizeEj(i32 noundef %tag) #5 comdat align 2 {
entry:
  %tag.addr = alloca i32, align 4
  store i32 %tag, ptr %tag.addr, align 4
  %0 = load i32, ptr %tag.addr, align 4
  %cmp = icmp ult i32 %0, 128
  br i1 %cmp, label %cond.true, label %cond.false

cond.true:                                        ; preds = %entry
  br label %cond.end11

cond.false:                                       ; preds = %entry
  %1 = load i32, ptr %tag.addr, align 4
  %cmp1 = icmp ult i32 %1, 16384
  br i1 %cmp1, label %cond.true2, label %cond.false3

cond.true2:                                       ; preds = %cond.false
  br label %cond.end9

cond.false3:                                      ; preds = %cond.false
  %2 = load i32, ptr %tag.addr, align 4
  %cmp4 = icmp ult i32 %2, 2097152
  br i1 %cmp4, label %cond.true5, label %cond.false6

cond.true5:                                       ; preds = %cond.false3
  br label %cond.end

cond.false6:                                      ; preds = %cond.false3
  %3 = load i32, ptr %tag.addr, align 4
  %cmp7 = icmp ult i32 %3, 268435456
  %cond = select i1 %cmp7, i32 4, i32 5
  br label %cond.end

cond.end:                                         ; preds = %cond.false6, %cond.true5
  %cond8 = phi i32 [ 3, %cond.true5 ], [ %cond, %cond.false6 ]
  br label %cond.end9

cond.end9:                                        ; preds = %cond.end, %cond.true2
  %cond10 = phi i32 [ 2, %cond.true2 ], [ %cond8, %cond.end ]
  br label %cond.end11

cond.end11:                                       ; preds = %cond.end9, %cond.true
  %cond12 = phi i32 [ 1, %cond.true ], [ %cond10, %cond.end9 ]
  ret i32 %cond12
}

; Function Attrs: mustprogress nounwind uwtable
define linkonce_odr hidden noundef ptr @_ZNK6google8protobuf8internal15TaggedStringPtr3GetB5cxx11Ev(ptr noundef nonnull align 8 dereferenceable(8) %this) #5 comdat align 2 {
entry:
  %this.addr = alloca ptr, align 8
  store ptr %this, ptr %this.addr, align 8
  %this1 = load ptr, ptr %this.addr, align 8
  %call = call noundef i64 @_ZNK6google8protobuf8internal15TaggedStringPtr6as_intEv(ptr noundef nonnull align 8 dereferenceable(8) %this1)
  %and = and i64 %call, -4
  %0 = inttoptr i64 %and to ptr
  ret ptr %0
}

; Function Attrs: mustprogress nounwind uwtable
define linkonce_odr hidden noundef ptr @_ZNK6google8protobuf8internal16InternalMetadata8PtrValueINS2_9ContainerINS0_15UnknownFieldSetEEEEEPT_v(ptr noundef nonnull align 8 dereferenceable(8) %this) #5 comdat align 2 {
entry:
  %this.addr = alloca ptr, align 8
  store ptr %this, ptr %this.addr, align 8
  %this1 = load ptr, ptr %this.addr, align 8
  %ptr_ = getelementptr inbounds %"class.google::protobuf::internal::InternalMetadata", ptr %this1, i32 0, i32 0
  %0 = load i64, ptr %ptr_, align 8
  %and = and i64 %0, -2
  %1 = inttoptr i64 %and to ptr
  ret ptr %1
}

; Function Attrs: mustprogress nounwind uwtable
define linkonce_odr hidden noundef i32 @_ZNK6google8protobuf3Any13GetCachedSizeEv(ptr noundef nonnull align 8 dereferenceable(56) %this) #5 comdat align 2 {
entry:
  %this.addr = alloca ptr, align 8
  store ptr %this, ptr %this.addr, align 8
  %this1 = load ptr, ptr %this.addr, align 8
  %0 = getelementptr inbounds %"class.google::protobuf::Any", ptr %this1, i32 0, i32 1
  %_cached_size_ = getelementptr inbounds %"struct.google::protobuf::Any::Impl_", ptr %0, i32 0, i32 2
  %call = call noundef i32 @_ZNK6google8protobuf8internal10CachedSize3GetEv(ptr noundef nonnull align 4 dereferenceable(4) %_cached_size_) #3
  ret i32 %call
}

; Function Attrs: mustprogress uwtable
define linkonce_odr hidden noundef ptr @_ZN6google8protobuf2io19EpsCopyOutputStream23WriteStringMaybeAliasedEjRKNSt7__cxx1112basic_stringIcSt11char_traitsIcESaIcEEEPh(ptr noundef nonnull align 8 dereferenceable(60) %this, i32 noundef %num, ptr noundef nonnull align 8 dereferenceable(32) %s, ptr noundef %ptr) #4 comdat align 2 {
entry:
  %value.addr.i = alloca i32, align 4
  %ptr.addr.i = alloca ptr, align 8
  %retval = alloca ptr, align 8
  %this.addr = alloca ptr, align 8
  %num.addr = alloca i32, align 4
  %s.addr = alloca ptr, align 8
  %ptr.addr = alloca ptr, align 8
  %size = alloca i64, align 8
  store ptr %this, ptr %this.addr, align 8
  store i32 %num, ptr %num.addr, align 4
  store ptr %s, ptr %s.addr, align 8
  store ptr %ptr, ptr %ptr.addr, align 8
  %this1 = load ptr, ptr %this.addr, align 8
  %0 = load ptr, ptr %s.addr, align 8
  %call = call noundef i64 @_ZNKSt7__cxx1112basic_stringIcSt11char_traitsIcESaIcEE4sizeEv(ptr noundef nonnull align 8 dereferenceable(32) %0) #3
  store i64 %call, ptr %size, align 8
  %1 = load i64, ptr %size, align 8
  %cmp = icmp sge i64 %1, 128
  br i1 %cmp, label %lor.end, label %lor.rhs

lor.rhs:                                          ; preds = %entry
  %end_ = getelementptr inbounds %"class.google::protobuf::io::EpsCopyOutputStream", ptr %this1, i32 0, i32 0
  %2 = load ptr, ptr %end_, align 8
  %3 = load ptr, ptr %ptr.addr, align 8
  %sub.ptr.lhs.cast = ptrtoint ptr %2 to i64
  %sub.ptr.rhs.cast = ptrtoint ptr %3 to i64
  %sub.ptr.sub = sub i64 %sub.ptr.lhs.cast, %sub.ptr.rhs.cast
  %add = add nsw i64 %sub.ptr.sub, 16
  %4 = load i32, ptr %num.addr, align 4
  %shl = shl i32 %4, 3
  %call2 = call noundef i32 @_ZN6google8protobuf2io19EpsCopyOutputStream7TagSizeEj(i32 noundef %shl)
  %conv = sext i32 %call2 to i64
  %sub = sub nsw i64 %add, %conv
  %sub3 = sub nsw i64 %sub, 1
  %5 = load i64, ptr %size, align 8
  %cmp4 = icmp slt i64 %sub3, %5
  br label %lor.end

lor.end:                                          ; preds = %lor.rhs, %entry
  %6 = phi i1 [ true, %entry ], [ %cmp4, %lor.rhs ]
  br i1 %6, label %if.then, label %if.end

if.then:                                          ; preds = %lor.end
  %7 = load i32, ptr %num.addr, align 4
  %8 = load ptr, ptr %s.addr, align 8
  %9 = load ptr, ptr %ptr.addr, align 8
  %call6 = call noundef ptr @_ZN6google8protobuf2io19EpsCopyOutputStream30WriteStringMaybeAliasedOutlineEjRKNSt7__cxx1112basic_stringIcSt11char_traitsIcESaIcEEEPh(ptr noundef nonnull align 8 dereferenceable(60) %this1, i32 noundef %7, ptr noundef nonnull align 8 dereferenceable(32) %8, ptr noundef %9)
  store ptr %call6, ptr %retval, align 8
  br label %return

if.end:                                           ; preds = %lor.end
  %10 = load i32, ptr %num.addr, align 4
  %shl7 = shl i32 %10, 3
  %or = or i32 %shl7, 2
  %11 = load ptr, ptr %ptr.addr, align 8
  store i32 %or, ptr %value.addr.i, align 4
  store ptr %11, ptr %ptr.addr.i, align 8
  br label %while.cond.i

while.cond.i:                                     ; preds = %while.body.i, %if.end
  %12 = load i32, ptr %value.addr.i, align 4
  %cmp.i = icmp uge i32 %12, 128
  br i1 %cmp.i, label %while.body.i, label %_ZN6google8protobuf2io19EpsCopyOutputStream12UnsafeVarintIjEEPhT_S4_.exit

while.body.i:                                     ; preds = %while.cond.i
  %13 = load i32, ptr %value.addr.i, align 4
  %or.i = or i32 %13, 128
  %conv.i = trunc i32 %or.i to i8
  %14 = load ptr, ptr %ptr.addr.i, align 8
  store i8 %conv.i, ptr %14, align 1
  %15 = load i32, ptr %value.addr.i, align 4
  %shr.i = lshr i32 %15, 7
  store i32 %shr.i, ptr %value.addr.i, align 4
  %16 = load ptr, ptr %ptr.addr.i, align 8
  %incdec.ptr.i = getelementptr inbounds i8, ptr %16, i32 1
  store ptr %incdec.ptr.i, ptr %ptr.addr.i, align 8
  br label %while.cond.i, !llvm.loop !7

_ZN6google8protobuf2io19EpsCopyOutputStream12UnsafeVarintIjEEPhT_S4_.exit: ; preds = %while.cond.i
  %17 = load i32, ptr %value.addr.i, align 4
  %conv1.i = trunc i32 %17 to i8
  %18 = load ptr, ptr %ptr.addr.i, align 8
  %incdec.ptr2.i = getelementptr inbounds i8, ptr %18, i32 1
  store ptr %incdec.ptr2.i, ptr %ptr.addr.i, align 8
  store i8 %conv1.i, ptr %18, align 1
  %19 = load ptr, ptr %ptr.addr.i, align 8
  store ptr %19, ptr %ptr.addr, align 8
  %20 = load i64, ptr %size, align 8
  %conv9 = trunc i64 %20 to i8
  %21 = load ptr, ptr %ptr.addr, align 8
  %incdec.ptr = getelementptr inbounds i8, ptr %21, i32 1
  store ptr %incdec.ptr, ptr %ptr.addr, align 8
  store i8 %conv9, ptr %21, align 1
  %22 = load ptr, ptr %ptr.addr, align 8
  %23 = load ptr, ptr %s.addr, align 8
  %call10 = call noundef ptr @_ZNKSt7__cxx1112basic_stringIcSt11char_traitsIcESaIcEE4dataEv(ptr noundef nonnull align 8 dereferenceable(32) %23) #3
  %24 = load i64, ptr %size, align 8
  call void @llvm.memcpy.p0.p0.i64(ptr align 1 %22, ptr align 1 %call10, i64 %24, i1 false)
  %25 = load ptr, ptr %ptr.addr, align 8
  %26 = load i64, ptr %size, align 8
  %add.ptr = getelementptr inbounds i8, ptr %25, i64 %26
  store ptr %add.ptr, ptr %retval, align 8
  br label %return

return:                                           ; preds = %_ZN6google8protobuf2io19EpsCopyOutputStream12UnsafeVarintIjEEPhT_S4_.exit, %if.then
  %27 = load ptr, ptr %retval, align 8
  ret ptr %27
}

; Function Attrs: mustprogress uwtable
define linkonce_odr hidden noundef nonnull align 8 dereferenceable(32) ptr @_ZNK6google8protobuf6Option14_internal_nameB5cxx11Ev(ptr noundef nonnull align 8 dereferenceable(40) %this) #4 comdat align 2 {
entry:
  %this.addr.i = alloca ptr, align 8
  %this.addr = alloca ptr, align 8
  store ptr %this, ptr %this.addr, align 8
  %this1 = load ptr, ptr %this.addr, align 8
  %0 = getelementptr inbounds %"class.google::protobuf::Option", ptr %this1, i32 0, i32 1
  %name_ = getelementptr inbounds %"struct.google::protobuf::Option::Impl_", ptr %0, i32 0, i32 2
  store ptr %name_, ptr %this.addr.i, align 8
  %this1.i = load ptr, ptr %this.addr.i, align 8
  %call.i = call noundef nonnull align 8 dereferenceable(32) ptr @_ZNK6google8protobuf8internal15TaggedStringPtr3GetB5cxx11Ev(ptr noundef nonnull align 8 dereferenceable(8) %this1.i)
  ret ptr %call.i
}

; Function Attrs: mustprogress uwtable
define noundef ptr @_ZNK6google8protobuf6Option18_InternalSerializeEPhPNS0_2io19EpsCopyOutputStreamE(ptr noundef nonnull align 8 dereferenceable(40) %this, ptr noundef %target, ptr noundef %stream) unnamed_addr #4 align 2 {
entry:
  %this.addr.i27 = alloca ptr, align 8
  %this.addr.i25 = alloca ptr, align 8
  %this.addr.i.i = alloca ptr, align 8
  %retval.i = alloca ptr, align 8
  %this.addr.i23 = alloca ptr, align 8
  %default_instance.addr.i = alloca ptr, align 8
  %this.addr.i21 = alloca ptr, align 8
  %this.addr.i = alloca ptr, align 8
  %index.addr.i = alloca i32, align 4
  %this.addr = alloca ptr, align 8
  %target.addr = alloca ptr, align 8
  %stream.addr = alloca ptr, align 8
  %cached_has_bits = alloca i32, align 4
  %_s = alloca ptr, align 8
  store ptr %this, ptr %this.addr, align 8
  store ptr %target, ptr %target.addr, align 8
  store ptr %stream, ptr %stream.addr, align 8
  %this1 = load ptr, ptr %this.addr, align 8
  store i32 0, ptr %cached_has_bits, align 4
  %call = call noundef nonnull align 8 dereferenceable(32) ptr @_ZNK6google8protobuf6Option14_internal_nameB5cxx11Ev(ptr noundef nonnull align 8 dereferenceable(40) %this1)
  %call2 = call noundef zeroext i1 @_ZNKSt7__cxx1112basic_stringIcSt11char_traitsIcESaIcEE5emptyEv(ptr noundef nonnull align 8 dereferenceable(32) %call) #3
  br i1 %call2, label %if.end, label %if.then

if.then:                                          ; preds = %entry
  %call3 = call noundef nonnull align 8 dereferenceable(32) ptr @_ZNK6google8protobuf6Option14_internal_nameB5cxx11Ev(ptr noundef nonnull align 8 dereferenceable(40) %this1)
  store ptr %call3, ptr %_s, align 8
  %0 = load ptr, ptr %_s, align 8
  %call4 = call noundef ptr @_ZNKSt7__cxx1112basic_stringIcSt11char_traitsIcESaIcEE4dataEv(ptr noundef nonnull align 8 dereferenceable(32) %0) #3
  %1 = load ptr, ptr %_s, align 8
  %call5 = call noundef i64 @_ZNKSt7__cxx1112basic_stringIcSt11char_traitsIcESaIcEE6lengthEv(ptr noundef nonnull align 8 dereferenceable(32) %1) #3
  %conv = trunc i64 %call5 to i32
  %call6 = call noundef zeroext i1 @_ZN6google8protobuf8internal14WireFormatLite16VerifyUtf8StringEPKciNS2_9OperationES4_(ptr noundef %call4, i32 noundef %conv, i32 noundef 1, ptr noundef @.str.14)
  %2 = load ptr, ptr %stream.addr, align 8
  %3 = load ptr, ptr %_s, align 8
  %4 = load ptr, ptr %target.addr, align 8
  %call7 = call noundef ptr @_ZN6google8protobuf2io19EpsCopyOutputStream23WriteStringMaybeAliasedEjRKNSt7__cxx1112basic_stringIcSt11char_traitsIcESaIcEEEPh(ptr noundef nonnull align 8 dereferenceable(60) %2, i32 noundef 1, ptr noundef nonnull align 8 dereferenceable(32) %3, ptr noundef %4)
  store ptr %call7, ptr %target.addr, align 8
  br label %if.end

if.end:                                           ; preds = %if.then, %entry
  %5 = getelementptr inbounds %"class.google::protobuf::Option", ptr %this1, i32 0, i32 1
  %_has_bits_ = getelementptr inbounds %"struct.google::protobuf::Option::Impl_", ptr %5, i32 0, i32 0
  store ptr %_has_bits_, ptr %this.addr.i, align 8
  store i32 0, ptr %index.addr.i, align 4
  %this1.i = load ptr, ptr %this.addr.i, align 8
  %6 = load i32, ptr %index.addr.i, align 4
  %idxprom.i = sext i32 %6 to i64
  %arrayidx.i = getelementptr inbounds [1 x i32], ptr %this1.i, i64 0, i64 %idxprom.i
  %7 = load i32, ptr %arrayidx.i, align 4
  store i32 %7, ptr %cached_has_bits, align 4
  %8 = load i32, ptr %cached_has_bits, align 4
  %and = and i32 %8, 1
  %tobool = icmp ne i32 %and, 0
  br i1 %tobool, label %if.then9, label %if.end13

if.then9:                                         ; preds = %if.end
  %9 = getelementptr inbounds %"class.google::protobuf::Option", ptr %this1, i32 0, i32 1
  %value_ = getelementptr inbounds %"struct.google::protobuf::Option::Impl_", ptr %9, i32 0, i32 3
  %10 = load ptr, ptr %value_, align 8
  %11 = getelementptr inbounds %"class.google::protobuf::Option", ptr %this1, i32 0, i32 1
  %value_10 = getelementptr inbounds %"struct.google::protobuf::Option::Impl_", ptr %11, i32 0, i32 3
  %12 = load ptr, ptr %value_10, align 8
  %call11 = call noundef i32 @_ZNK6google8protobuf3Any13GetCachedSizeEv(ptr noundef nonnull align 8 dereferenceable(56) %12)
  %13 = load ptr, ptr %target.addr, align 8
  %14 = load ptr, ptr %stream.addr, align 8
  %call12 = call noundef ptr @_ZN6google8protobuf8internal14WireFormatLite20InternalWriteMessageEiRKNS0_11MessageLiteEiPhPNS0_2io19EpsCopyOutputStreamE(i32 noundef 2, ptr noundef nonnull align 8 dereferenceable(16) %10, i32 noundef %call11, ptr noundef %13, ptr noundef %14)
  store ptr %call12, ptr %target.addr, align 8
  br label %if.end13

if.end13:                                         ; preds = %if.then9, %if.end
  %_internal_metadata_ = getelementptr inbounds %"class.google::protobuf::MessageLite", ptr %this1, i32 0, i32 1
  store ptr %_internal_metadata_, ptr %this.addr.i21, align 8
  %this1.i22 = load ptr, ptr %this.addr.i21, align 8
  store ptr %this1.i22, ptr %this.addr.i27, align 8
  %this1.i28 = load ptr, ptr %this.addr.i27, align 8
  %15 = load i64, ptr %this1.i28, align 8
  %and.i29 = and i64 %15, 1
  %tobool.i30 = icmp ne i64 %and.i29, 0
  br i1 %tobool.i30, label %if.then16, label %if.end20

if.then16:                                        ; preds = %if.end13
  %_internal_metadata_17 = getelementptr inbounds %"class.google::protobuf::MessageLite", ptr %this1, i32 0, i32 1
  store ptr %_internal_metadata_17, ptr %this.addr.i23, align 8
  store ptr @_ZN6google8protobuf15UnknownFieldSet16default_instanceEv, ptr %default_instance.addr.i, align 8
  %this1.i24 = load ptr, ptr %this.addr.i23, align 8
  store ptr %this1.i24, ptr %this.addr.i.i, align 8
  %this1.i.i = load ptr, ptr %this.addr.i.i, align 8
  store ptr %this1.i.i, ptr %this.addr.i25, align 8
  %this1.i26 = load ptr, ptr %this.addr.i25, align 8
  %16 = load i64, ptr %this1.i26, align 8
  %and.i = and i64 %16, 1
  %tobool.i = icmp ne i64 %and.i, 0
  br i1 %tobool.i, label %if.then.i, label %if.else.i

if.then.i:                                        ; preds = %if.then16
  %call2.i = call noundef ptr @_ZNK6google8protobuf8internal16InternalMetadata8PtrValueINS2_9ContainerINS0_15UnknownFieldSetEEEEEPT_v(ptr noundef nonnull align 8 dereferenceable(8) %this1.i24)
  %unknown_fields.i = getelementptr inbounds %"struct.google::protobuf::internal::InternalMetadata::Container", ptr %call2.i, i32 0, i32 1
  store ptr %unknown_fields.i, ptr %retval.i, align 8
  br label %_ZNK6google8protobuf8internal16InternalMetadata14unknown_fieldsINS0_15UnknownFieldSetEEERKT_PFS7_vE.exit

if.else.i:                                        ; preds = %if.then16
  %17 = load ptr, ptr %default_instance.addr.i, align 8
  %call3.i = call noundef nonnull align 8 dereferenceable(24) ptr %17()
  store ptr %call3.i, ptr %retval.i, align 8
  br label %_ZNK6google8protobuf8internal16InternalMetadata14unknown_fieldsINS0_15UnknownFieldSetEEERKT_PFS7_vE.exit

_ZNK6google8protobuf8internal16InternalMetadata14unknown_fieldsINS0_15UnknownFieldSetEEERKT_PFS7_vE.exit: ; preds = %if.else.i, %if.then.i
  %18 = load ptr, ptr %retval.i, align 8
  %19 = load ptr, ptr %target.addr, align 8
  %20 = load ptr, ptr %stream.addr, align 8
  %call19 = call noundef ptr @_ZN6google8protobuf8internal10WireFormat37InternalSerializeUnknownFieldsToArrayERKNS0_15UnknownFieldSetEPhPNS0_2io19EpsCopyOutputStreamE(ptr noundef nonnull align 8 dereferenceable(24) %18, ptr noundef %19, ptr noundef %20)
  store ptr %call19, ptr %target.addr, align 8
  br label %if.end20

if.end20:                                         ; preds = %_ZNK6google8protobuf8internal16InternalMetadata14unknown_fieldsINS0_15UnknownFieldSetEEERKT_PFS7_vE.exit, %if.end13
  %21 = load ptr, ptr %target.addr, align 8
  ret ptr %21
}